target datalayout = "e-m:e-p270:32:32-p271:32:32-p272:64:64-i64:64-i128:128-f80:128-n8:16:32:64-S128"
target triple = "x86_64-pc-linux-gnu"

%struct.H5T_t = type { %struct.H5O_shared_t, ptr, %struct.H5O_loc_t, %struct.H5G_name_t, ptr }
%struct.H5O_shared_t = type { i32, ptr, i32, %union.anon }
%union.anon = type { %struct.H5O_mesg_loc_t }
%struct.H5O_mesg_loc_t = type { i32, i64 }
%struct.H5O_loc_t = type { ptr, i64, i8 }
%struct.H5G_name_t = type { ptr, ptr, i32 }
%struct.H5T_shared_t = type { i64, i32, i32, i64, i32, i8, ptr, ptr, %union.anon.0 }
%union.anon.0 = type { %struct.H5T_array_t }
%struct.H5T_array_t = type { i64, i32, [32 x i64] }
%struct.H5T_compnd_t = type { i32, i32, i32, i8, ptr, i64 }
%struct.H5T_cmemb_t = type { ptr, i64, i64, ptr }

@H5_libinit_g = external global i8, align 1
@H5_libterm_g = external global i8, align 1
@.str = private unnamed_addr constant [105 x i8] c"generated/home/dtcxzyw/WorkSpace/Projects/compilers/llvm-opt-benchmark/bench/hdf5/hdf5/src/H5Tcompound.c\00", align 1
@H5E_FUNC_g = external global i64, align 8
@H5E_CANTINIT_g = external global i64, align 8
@.str.1 = private unnamed_addr constant [30 x i8] c"library initialization failed\00", align 1
@H5E_CANTSET_g = external global i64, align 8
@.str.2 = private unnamed_addr constant [22 x i8] c"can't set API context\00", align 1
@H5E_ARGS_g = external global i64, align 8
@H5E_BADTYPE_g = external global i64, align 8
@.str.3 = private unnamed_addr constant [24 x i8] c"not a compound datatype\00", align 1
@H5E_BADVALUE_g = external global i64, align 8
@.str.4 = private unnamed_addr constant [22 x i8] c"invalid member number\00", align 1
@__func__.H5Tget_member_type = private unnamed_addr constant [19 x i8] c"H5Tget_member_type\00", align 1
@H5E_DATATYPE_g = external global i64, align 8
@.str.5 = private unnamed_addr constant [31 x i8] c"unable to retrieve member type\00", align 1
@H5E_CANTREGISTER_g = external global i64, align 8
@.str.6 = private unnamed_addr constant [28 x i8] c"unable register datatype ID\00", align 1
@H5E_CANTCLOSEOBJ_g = external global i64, align 8
@.str.7 = private unnamed_addr constant [21 x i8] c"can't close datatype\00", align 1
@H5E_CANTCOPY_g = external global i64, align 8
@__func__.H5T__reopen_member_type = private unnamed_addr constant [24 x i8] c"H5T__reopen_member_type\00", align 1
@.str.22 = private unnamed_addr constant [33 x i8] c"unable to reopen member datatype\00", align 1

; Function Attrs: nounwind uwtable
define internal ptr @H5T__reopen_member_type(ptr noundef %0, i32 noundef %1) #0 {
  %3 = alloca ptr, align 8
  %4 = alloca i32, align 4
  %5 = alloca ptr, align 8
  %6 = alloca i8, align 1
  store ptr %0, ptr %3, align 8
  store i32 %1, ptr %4, align 4
  store ptr null, ptr %5, align 8
  store i8 0, ptr %6, align 1
  %7 = load ptr, ptr %3, align 8
  %8 = getelementptr inbounds %struct.H5T_t, ptr %7, i32 0, i32 1
  %9 = load ptr, ptr %8, align 8
  %10 = getelementptr inbounds %struct.H5T_shared_t, ptr %9, i32 0, i32 8
  %11 = getelementptr inbounds %struct.H5T_compnd_t, ptr %10, i32 0, i32 4
  %12 = load ptr, ptr %11, align 8
  %13 = load i32, ptr %4, align 4
  %14 = zext i32 %13 to i64
  %15 = getelementptr inbounds %struct.H5T_cmemb_t, ptr %12, i64 %14
  %16 = getelementptr inbounds %struct.H5T_cmemb_t, ptr %15, i32 0, i32 3
  %17 = load ptr, ptr %16, align 8
  %18 = call ptr @H5T_copy_reopen(ptr noundef %17)
  store ptr %18, ptr %5, align 8
  %19 = icmp eq ptr null, %18
  br i1 %19, label %20, label %35

20:                                               ; preds = %2
  br label %21

21:                                               ; preds = %20
  br label %22

22:                                               ; preds = %21
  br label %23

23:                                               ; preds = %22
  %24 = load i64, ptr @H5E_DATATYPE_g, align 8
  %25 = load i64, ptr @H5E_CANTCOPY_g, align 8
  %26 = call i32 (ptr, ptr, i32, i64, i64, ptr, ...) @H5E_printf_stack(ptr noundef @.str, ptr noundef @__func__.H5T__reopen_member_type, i32 noundef 270, i64 noundef %24, i64 noundef %25, ptr noundef @.str.22)
  br label %27

27:                                               ; preds = %23
  store i8 1, ptr %6, align 1
  %28 = load i8, ptr %6, align 1
  %29 = trunc i8 %28 to i1
  %30 = zext i1 %29 to i8
  store i8 %30, ptr %6, align 1
  br label %31

31:                                               ; preds = %27
  br label %32

32:                                               ; preds = %31
  store ptr null, ptr %5, align 8
  br label %36

33:                                               ; No predecessors!
  br label %34

34:                                               ; preds = %33
  br label %35

35:                                               ; preds = %34, %2
  br label %36

36:                                               ; preds = %35, %32
  %37 = load ptr, ptr %5, align 8
  ret ptr %37
}

; Function Attrs: nounwind uwtable
define i64 @H5Tget_member_type(i64 noundef %0, i32 noundef %1) #0 {
  %3 = alloca i64, align 8
  %4 = alloca i32, align 4
  %5 = alloca ptr, align 8
  %6 = alloca ptr, align 8
  %7 = alloca i64, align 8
  %8 = alloca i8, align 1
  %9 = alloca i8, align 1
  store i64 %0, ptr %3, align 8
  store i32 %1, ptr %4, align 4
  store ptr null, ptr %6, align 8
  store i8 0, ptr %8, align 1
  store i8 0, ptr %9, align 1
  %10 = load i8, ptr @H5_libinit_g, align 1
  %11 = trunc i8 %10 to i1
  br i1 %11, label %16, label %12

12:                                               ; preds = %2
  %13 = load i8, ptr @H5_libterm_g, align 1
  %14 = trunc i8 %13 to i1
  %15 = xor i1 %14, true
  br label %16

16:                                               ; preds = %12, %2
  %17 = phi i1 [ false, %2 ], [ %15, %12 ]
  %18 = xor i1 %17, true
  %19 = xor i1 %18, true
  %20 = zext i1 %19 to i32
  %21 = sext i32 %20 to i64
  %22 = icmp ne i64 %21, 0
  br i1 %22, label %23, label %47

23:                                               ; preds = %16
  %24 = call i32 @H5_init_library()
  %25 = icmp slt i32 %24, 0
  %26 = xor i1 %25, true
  %27 = xor i1 %26, true
  %28 = zext i1 %27 to i32
  %29 = sext i32 %28 to i64
  %30 = icmp ne i64 %29, 0
  br i1 %30, label %31, label %46

31:                                               ; preds = %23
  br label %32

32:                                               ; preds = %31
  br label %33

33:                                               ; preds = %32
  br label %34

34:                                               ; preds = %33
  %35 = load i64, ptr @H5E_FUNC_g, align 8
  %36 = load i64, ptr @H5E_CANTINIT_g, align 8
  %37 = call i32 (ptr, ptr, i32, i64, i64, ptr, ...) @H5E_printf_stack(ptr noundef @.str, ptr noundef @__func__.H5Tget_member_type, i32 noundef 187, i64 noundef %35, i64 noundef %36, ptr noundef @.str.1)
  br label %38

38:                                               ; preds = %34
  store i8 1, ptr %9, align 1
  %39 = load i8, ptr %9, align 1
  %40 = trunc i8 %39 to i1
  %41 = zext i1 %40 to i8
  store i8 %41, ptr %9, align 1
  br label %42

42:                                               ; preds = %38
  br label %43

43:                                               ; preds = %42
  store i64 -1, ptr %7, align 8
  br label %162

44:                                               ; No predecessors!
  br label %45

45:                                               ; preds = %44
  br label %46

46:                                               ; preds = %45, %23
  br label %47

47:                                               ; preds = %46, %16
  %48 = call i32 @H5CX_push()
  %49 = icmp slt i32 %48, 0
  %50 = xor i1 %49, true
  %51 = xor i1 %50, true
  %52 = zext i1 %51 to i32
  %53 = sext i32 %52 to i64
  %54 = icmp ne i64 %53, 0
  br i1 %54, label %55, label %70

55:                                               ; preds = %47
  br label %56

56:                                               ; preds = %55
  br label %57

57:                                               ; preds = %56
  br label %58

58:                                               ; preds = %57
  %59 = load i64, ptr @H5E_FUNC_g, align 8
  %60 = load i64, ptr @H5E_CANTSET_g, align 8
  %61 = call i32 (ptr, ptr, i32, i64, i64, ptr, ...) @H5E_printf_stack(ptr noundef @.str, ptr noundef @__func__.H5Tget_member_type, i32 noundef 187, i64 noundef %59, i64 noundef %60, ptr noundef @.str.2)
  br label %62

62:                                               ; preds = %58
  store i8 1, ptr %9, align 1
  %63 = load i8, ptr %9, align 1
  %64 = trunc i8 %63 to i1
  %65 = zext i1 %64 to i8
  store i8 %65, ptr %9, align 1
  br label %66

66:                                               ; preds = %62
  br label %67

67:                                               ; preds = %66
  store i64 -1, ptr %7, align 8
  br label %162

68:                                               ; No predecessors!
  br label %69

69:                                               ; preds = %68
  br label %71

70:                                               ; preds = %47
  store i8 1, ptr %8, align 1
  br label %71

71:                                               ; preds = %70, %69
  %72 = call i32 @H5E_clear_stack()
  %73 = load i64, ptr %3, align 8
  %74 = call ptr @H5I_object_verify(i64 noundef %73, i32 noundef 3)
  store ptr %74, ptr %5, align 8
  %75 = icmp eq ptr null, %74
  br i1 %75, label %83, label %76

76:                                               ; preds = %71
  %77 = load ptr, ptr %5, align 8
  %78 = getelementptr inbounds %struct.H5T_t, ptr %77, i32 0, i32 1
  %79 = load ptr, ptr %78, align 8
  %80 = getelementptr inbounds %struct.H5T_shared_t, ptr %79, i32 0, i32 2
  %81 = load i32, ptr %80, align 4
  %82 = icmp ne i32 6, %81
  br i1 %82, label %83, label %98

83:                                               ; preds = %76, %71
  br label %84

84:                                               ; preds = %83
  br label %85

85:                                               ; preds = %84
  br label %86

86:                                               ; preds = %85
  %87 = load i64, ptr @H5E_ARGS_g, align 8
  %88 = load i64, ptr @H5E_BADTYPE_g, align 8
  %89 = call i32 (ptr, ptr, i32, i64, i64, ptr, ...) @H5E_printf_stack(ptr noundef @.str, ptr noundef @__func__.H5Tget_member_type, i32 noundef 191, i64 noundef %87, i64 noundef %88, ptr noundef @.str.3)
  br label %90

90:                                               ; preds = %86
  store i8 1, ptr %9, align 1
  %91 = load i8, ptr %9, align 1
  %92 = trunc i8 %91 to i1
  %93 = zext i1 %92 to i8
  store i8 %93, ptr %9, align 1
  br label %94

94:                                               ; preds = %90
  br label %95

95:                                               ; preds = %94
  store i64 -1, ptr %7, align 8
  br label %162

96:                                               ; No predecessors!
  br label %97

97:                                               ; preds = %96
  br label %98

98:                                               ; preds = %97, %76
  %99 = load i32, ptr %4, align 4
  %100 = load ptr, ptr %5, align 8
  %101 = getelementptr inbounds %struct.H5T_t, ptr %100, i32 0, i32 1
  %102 = load ptr, ptr %101, align 8
  %103 = getelementptr inbounds %struct.H5T_shared_t, ptr %102, i32 0, i32 8
  %104 = getelementptr inbounds %struct.H5T_compnd_t, ptr %103, i32 0, i32 1
  %105 = load i32, ptr %104, align 4
  %106 = icmp uge i32 %99, %105
  br i1 %106, label %107, label %122

107:                                              ; preds = %98
  br label %108

108:                                              ; preds = %107
  br label %109

109:                                              ; preds = %108
  br label %110

110:                                              ; preds = %109
  %111 = load i64, ptr @H5E_ARGS_g, align 8
  %112 = load i64, ptr @H5E_BADVALUE_g, align 8
  %113 = call i32 (ptr, ptr, i32, i64, i64, ptr, ...) @H5E_printf_stack(ptr noundef @.str, ptr noundef @__func__.H5Tget_member_type, i32 noundef 193, i64 noundef %111, i64 noundef %112, ptr noundef @.str.4)
  br label %114

114:                                              ; preds = %110
  store i8 1, ptr %9, align 1
  %115 = load i8, ptr %9, align 1
  %116 = trunc i8 %115 to i1
  %117 = zext i1 %116 to i8
  store i8 %117, ptr %9, align 1
  br label %118

118:                                              ; preds = %114
  br label %119

119:                                              ; preds = %118
  store i64 -1, ptr %7, align 8
  br label %162

120:                                              ; No predecessors!
  br label %121

121:                                              ; preds = %120
  br label %122

122:                                              ; preds = %121, %98
  %123 = load ptr, ptr %5, align 8
  %124 = load i32, ptr %4, align 4
  %125 = call ptr @H5T__reopen_member_type(ptr noundef %123, i32 noundef %124)
  store ptr %125, ptr %6, align 8
  %126 = icmp eq ptr null, %125
  br i1 %126, label %127, label %142

127:                                              ; preds = %122
  br label %128

128:                                              ; preds = %127
  br label %129

129:                                              ; preds = %128
  br label %130

130:                                              ; preds = %129
  %131 = load i64, ptr @H5E_DATATYPE_g, align 8
  %132 = load i64, ptr @H5E_CANTINIT_g, align 8
  %133 = call i32 (ptr, ptr, i32, i64, i64, ptr, ...) @H5E_printf_stack(ptr noundef @.str, ptr noundef @__func__.H5Tget_member_type, i32 noundef 197, i64 noundef %131, i64 noundef %132, ptr noundef @.str.5)
  br label %134

134:                                              ; preds = %130
  store i8 1, ptr %9, align 1
  %135 = load i8, ptr %9, align 1
  %136 = trunc i8 %135 to i1
  %137 = zext i1 %136 to i8
  store i8 %137, ptr %9, align 1
  br label %138

138:                                              ; preds = %134
  br label %139

139:                                              ; preds = %138
  store i64 -1, ptr %7, align 8
  br label %162

140:                                              ; No predecessors!
  br label %141

141:                                              ; preds = %140
  br label %142

142:                                              ; preds = %141, %122
  %143 = load ptr, ptr %6, align 8
  %144 = call i64 @H5I_register(i32 noundef 3, ptr noundef %143, i1 noundef zeroext true)
  store i64 %144, ptr %7, align 8
  %145 = icmp slt i64 %144, 0
  br i1 %145, label %146, label %161

146:                                              ; preds = %142
  br label %147

147:                                              ; preds = %146
  br label %148

148:                                              ; preds = %147
  br label %149

149:                                              ; preds = %148
  %150 = load i64, ptr @H5E_DATATYPE_g, align 8
  %151 = load i64, ptr @H5E_CANTREGISTER_g, align 8
  %152 = call i32 (ptr, ptr, i32, i64, i64, ptr, ...) @H5E_printf_stack(ptr noundef @.str, ptr noundef @__func__.H5Tget_member_type, i32 noundef 201, i64 noundef %150, i64 noundef %151, ptr noundef @.str.6)
  br label %153

153:                                              ; preds = %149
  store i8 1, ptr %9, align 1
  %154 = load i8, ptr %9, align 1
  %155 = trunc i8 %154 to i1
  %156 = zext i1 %155 to i8
  store i8 %156, ptr %9, align 1
  br label %157

157:                                              ; preds = %153
  br label %158

158:                                              ; preds = %157
  store i64 -1, ptr %7, align 8
  br label %162

159:                                              ; No predecessors!
  br label %160

160:                                              ; preds = %159
  br label %161

161:                                              ; preds = %160, %142
  br label %162

162:                                              ; preds = %161, %158, %139, %119, %95, %67, %43
  %163 = load i64, ptr %7, align 8
  %164 = icmp slt i64 %163, 0
  br i1 %164, label %165, label %186

165:                                              ; preds = %162
  %166 = load ptr, ptr %6, align 8
  %167 = icmp ne ptr %166, null
  br i1 %167, label %168, label %185

168:                                              ; preds = %165
  %169 = load ptr, ptr %6, align 8
  %170 = call i32 @H5T_close(ptr noundef %169)
  %171 = icmp slt i32 %170, 0
  br i1 %171, label %172, label %185

172:                                              ; preds = %168
  br label %173

173:                                              ; preds = %172
  br label %174

174:                                              ; preds = %173
  br label %175

175:                                              ; preds = %174
  %176 = load i64, ptr @H5E_DATATYPE_g, align 8
  %177 = load i64, ptr @H5E_CANTCLOSEOBJ_g, align 8
  %178 = call i32 (ptr, ptr, i32, i64, i64, ptr, ...) @H5E_printf_stack(ptr noundef @.str, ptr noundef @__func__.H5Tget_member_type, i32 noundef 206, i64 noundef %176, i64 noundef %177, ptr noundef @.str.7)
  br label %179

179:                                              ; preds = %175
  store i8 1, ptr %9, align 1
  %180 = load i8, ptr %9, align 1
  %181 = trunc i8 %180 to i1
  %182 = zext i1 %181 to i8
  store i8 %182, ptr %9, align 1
  br label %183

183:                                              ; preds = %179
  store i64 -1, ptr %7, align 8
  br label %184

184:                                              ; preds = %183
  br label %185

185:                                              ; preds = %184, %168, %165
  br label %186

186:                                              ; preds = %185, %162
  %187 = load i8, ptr %8, align 1
  %188 = trunc i8 %187 to i1
  %189 = xor i1 %188, true
  %190 = xor i1 %189, true
  %191 = zext i1 %190 to i32
  %192 = sext i32 %191 to i64
  %193 = icmp ne i64 %192, 0
  br i1 %193, label %194, label %196

194:                                              ; preds = %186
  %195 = call i32 @H5CX_pop(i1 noundef zeroext true)
  store i8 0, ptr %8, align 1
  br label %196

196:                                              ; preds = %194, %186
  %197 = load i8, ptr %9, align 1
  %198 = trunc i8 %197 to i1
  %199 = xor i1 %198, true
  %200 = xor i1 %199, true
  %201 = zext i1 %200 to i32
  %202 = sext i32 %201 to i64
  %203 = icmp ne i64 %202, 0
  br i1 %203, label %204, label %206

204:                                              ; preds = %196
  %205 = call i32 @H5E_dump_api_stack()
  br label %206

206:                                              ; preds = %204, %196
  %207 = load i64, ptr %7, align 8
  ret i64 %207
}