; Function Attrs: nounwind uwtable
define range(i64 -1, -9223372036854775808) i64 @H5Tget_member_type(i64 noundef %0, i32 noundef %1) local_unnamed_addr #0 {
  %3 = load i8, ptr @H5_libinit_g, align 1
  %4 = trunc i8 %3 to i1
  %5 = load i8, ptr @H5_libterm_g, align 1
  %6 = trunc i8 %5 to i1
  %7 = select i1 %4, i1 true, i1 %6
  br i1 %7, label %15, label %8

8:                                                ; preds = %2
  %9 = tail call i32 @H5_init_library() #6
  %10 = icmp slt i32 %9, 0
  br i1 %10, label %11, label %15

11:                                               ; preds = %8
  %12 = load i64, ptr @H5E_FUNC_g, align 8
  %13 = load i64, ptr @H5E_CANTINIT_g, align 8
  %14 = tail call i32 (ptr, ptr, i32, i64, i64, ptr, ...) @H5E_printf_stack(ptr noundef nonnull @.str, ptr noundef nonnull @__func__.H5Tget_member_type, i32 noundef 187, i64 noundef %12, i64 noundef %13, ptr noundef nonnull @.str.1) #6
  br label %.thread51

15:                                               ; preds = %8, %2
  %16 = tail call i32 @H5CX_push() #6
  %17 = icmp slt i32 %16, 0
  br i1 %17, label %18, label %22

18:                                               ; preds = %15
  %19 = load i64, ptr @H5E_FUNC_g, align 8
  %20 = load i64, ptr @H5E_CANTSET_g, align 8
  %21 = tail call i32 (ptr, ptr, i32, i64, i64, ptr, ...) @H5E_printf_stack(ptr noundef nonnull @.str, ptr noundef nonnull @__func__.H5Tget_member_type, i32 noundef 187, i64 noundef %19, i64 noundef %20, ptr noundef nonnull @.str.2) #6
  br label %.thread51

22:                                               ; preds = %15
  %23 = tail call i32 @H5E_clear_stack() #6
  %24 = tail call ptr @H5I_object_verify(i64 noundef %0, i32 noundef 3) #6
  %25 = icmp eq ptr %24, null
  br i1 %25, label %31, label %26

26:                                               ; preds = %22
  %27 = getelementptr inbounds i8, ptr %24, i64 40
  %28 = load ptr, ptr %27, align 8
  %29 = getelementptr inbounds i8, ptr %28, i64 12
  %30 = load i32, ptr %29, align 4
  %.not = icmp eq i32 %30, 6
  br i1 %.not, label %35, label %31

31:                                               ; preds = %22, %26
  %32 = load i64, ptr @H5E_ARGS_g, align 8
  %33 = load i64, ptr @H5E_BADTYPE_g, align 8
  %34 = tail call i32 (ptr, ptr, i32, i64, i64, ptr, ...) @H5E_printf_stack(ptr noundef nonnull @.str, ptr noundef nonnull @__func__.H5Tget_member_type, i32 noundef 191, i64 noundef %32, i64 noundef %33, ptr noundef nonnull @.str.3) #6
  br label %.thread60

35:                                               ; preds = %26
  %36 = getelementptr inbounds i8, ptr %28, i64 52
  %37 = load i32, ptr %36, align 4
  %.not29 = icmp ugt i32 %37, %1
  br i1 %.not29, label %42, label %38

38:                                               ; preds = %35
  %39 = load i64, ptr @H5E_ARGS_g, align 8
  %40 = load i64, ptr @H5E_BADVALUE_g, align 8
  %41 = tail call i32 (ptr, ptr, i32, i64, i64, ptr, ...) @H5E_printf_stack(ptr noundef nonnull @.str, ptr noundef nonnull @__func__.H5Tget_member_type, i32 noundef 193, i64 noundef %39, i64 noundef %40, ptr noundef nonnull @.str.4) #6
  br label %.thread60

42:                                               ; preds = %35
  %43 = getelementptr i8, ptr %28, i64 64
  %.val.val = load ptr, ptr %43, align 8
  %44 = zext i32 %1 to i64
  %45 = getelementptr inbounds %struct.H5T_cmemb_t, ptr %.val.val, i64 %44, i32 3
  %46 = load ptr, ptr %45, align 8
  %47 = tail call ptr @H5T_copy_reopen(ptr noundef %46) #6
  %48 = icmp eq ptr %47, null
  br i1 %48, label %49, label %H5T__reopen_member_type.exit

49:                                               ; preds = %42
  %50 = load i64, ptr @H5E_DATATYPE_g, align 8
  %51 = load i64, ptr @H5E_CANTCOPY_g, align 8
  %52 = tail call i32 (ptr, ptr, i32, i64, i64, ptr, ...) @H5E_printf_stack(ptr noundef nonnull @.str, ptr noundef nonnull @__func__.H5T__reopen_member_type, i32 noundef 270, i64 noundef %50, i64 noundef %51, ptr noundef nonnull @.str.22) #6
  %53 = load i64, ptr @H5E_DATATYPE_g, align 8
  %54 = load i64, ptr @H5E_CANTINIT_g, align 8
  %55 = tail call i32 (ptr, ptr, i32, i64, i64, ptr, ...) @H5E_printf_stack(ptr noundef nonnull @.str, ptr noundef nonnull @__func__.H5Tget_member_type, i32 noundef 197, i64 noundef %53, i64 noundef %54, ptr noundef nonnull @.str.5) #6
  br label %.thread60

H5T__reopen_member_type.exit:                     ; preds = %42
  %56 = tail call i64 @H5I_register(i32 noundef 3, ptr noundef nonnull %47, i1 noundef zeroext true) #6
  %57 = icmp slt i64 %56, 0
  br i1 %57, label %58, label %70

58:                                               ; preds = %H5T__reopen_member_type.exit
  %59 = load i64, ptr @H5E_DATATYPE_g, align 8
  %60 = load i64, ptr @H5E_CANTREGISTER_g, align 8
  %61 = tail call i32 (ptr, ptr, i32, i64, i64, ptr, ...) @H5E_printf_stack(ptr noundef nonnull @.str, ptr noundef nonnull @__func__.H5Tget_member_type, i32 noundef 201, i64 noundef %59, i64 noundef %60, ptr noundef nonnull @.str.6) #6
  %62 = tail call i32 @H5T_close(ptr noundef nonnull %47) #6
  %63 = icmp slt i32 %62, 0
  br i1 %63, label %64, label %.thread56

64:                                               ; preds = %58
  %65 = load i64, ptr @H5E_DATATYPE_g, align 8
  %66 = load i64, ptr @H5E_CANTCLOSEOBJ_g, align 8
  %67 = tail call i32 (ptr, ptr, i32, i64, i64, ptr, ...) @H5E_printf_stack(ptr noundef nonnull @.str, ptr noundef nonnull @__func__.H5Tget_member_type, i32 noundef 206, i64 noundef %65, i64 noundef %66, ptr noundef nonnull @.str.7) #6
  br label %.thread56

.thread56:                                        ; preds = %58, %64
  %68 = tail call i32 @H5CX_pop(i1 noundef zeroext true) #6
  br label %.thread51

.thread60:                                        ; preds = %31, %38, %49
  %69 = tail call i32 @H5CX_pop(i1 noundef zeroext true) #6
  br label %.thread51

70:                                               ; preds = %H5T__reopen_member_type.exit
  %71 = tail call i32 @H5CX_pop(i1 noundef zeroext true) #6
  br label %73

.thread51:                                        ; preds = %11, %18, %.thread60, %.thread56
  %72 = tail call i32 @H5E_dump_api_stack() #6
  br label %73

73:                                               ; preds = %70, %.thread51
  %.1224154 = phi i64 [ -1, %.thread51 ], [ %56, %70 ]
  ret i64 %.1224154
}